target datalayout = "e-m:e-p270:32:32-p271:32:32-p272:64:64-i64:64-i128:128-f80:128-n8:16:32:64-S128"
target triple = "x86_64-pc-linux-gnu"

%struct.pmix_shmem_t = type { %struct.pmix_object_t, i8, i64, ptr, ptr, [4097 x i8] }
%struct.pmix_object_t = type { %union.pthread_mutex_t, ptr, i32, %struct.pmix_tma }
%union.pthread_mutex_t = type { %struct.__pthread_mutex_s }
%struct.__pthread_mutex_s = type { i32, i32, i32, i32, i32, i16, i16, %struct.__pthread_internal_list }
%struct.__pthread_internal_list = type { ptr, ptr }
%struct.pmix_tma = type { ptr, ptr, ptr, ptr, ptr, ptr, ptr, ptr }

@.str = private unnamed_addr constant [37 x i8] c"PMIX ERROR: %s in file %s at line %d\00", align 1
@.str.1 = private unnamed_addr constant [13 x i8] c"pmix_shmem.c\00", align 1

; Function Attrs: nounwind uwtable
define i32 @pmix_shmem_segment_chown(ptr noundef %0, i32 noundef %1, i32 noundef %2) #0 {
  %4 = alloca ptr, align 8
  %5 = alloca i32, align 4
  %6 = alloca i32, align 4
  %7 = alloca i32, align 4
  store ptr %0, ptr %4, align 8, !tbaa !3
  store i32 %1, ptr %5, align 4, !tbaa !12
  store i32 %2, ptr %6, align 4, !tbaa !12
  call void @llvm.lifetime.start.p0(i64 4, ptr %7) #7
  store i32 0, ptr %7, align 4, !tbaa !12
  %8 = load ptr, ptr %4, align 8, !tbaa !3
  %9 = getelementptr inbounds nuw %struct.pmix_shmem_t, ptr %8, i32 0, i32 5
  %10 = getelementptr inbounds [4097 x i8], ptr %9, i64 0, i64 0
  %11 = load i32, ptr %5, align 4, !tbaa !12
  %12 = load i32, ptr %6, align 4, !tbaa !12
  %13 = call i32 @lchown(ptr noundef %10, i32 noundef %11, i32 noundef %12) #7
  %14 = icmp ne i32 %13, 0
  br i1 %14, label %15, label %25

15:                                               ; preds = %3
  store i32 -1, ptr %7, align 4, !tbaa !12
  br label %16

16:                                               ; preds = %15
  %17 = load i32, ptr %7, align 4, !tbaa !12
  %18 = icmp ne i32 -2, %17
  br i1 %18, label %19, label %22

19:                                               ; preds = %16
  %20 = load i32, ptr %7, align 4, !tbaa !12
  %21 = call ptr @PMIx_Error_string(i32 noundef %20)
  call void (i32, ptr, ...) @pmix_output(i32 noundef 0, ptr noundef @.str, ptr noundef %21, ptr noundef @.str.1, i32 noundef 203)
  br label %22

22:                                               ; preds = %19, %16
  br label %23

23:                                               ; preds = %22
  br label %24

24:                                               ; preds = %23
  br label %25

25:                                               ; preds = %24, %3
  %26 = load i32, ptr %7, align 4, !tbaa !12
  call void @llvm.lifetime.end.p0(i64 4, ptr %7) #7
  ret i32 %26
}