; Function Attrs: nounwind uwtable
define range(i32 -1, 1) i32 @pmix_shmem_segment_chown(ptr noundef readonly captures(none) %0, i32 noundef %1, i32 noundef %2) local_unnamed_addr #0 {
  %4 = getelementptr inbounds nuw i8, ptr %0, i64 152
  %5 = tail call i32 @lchown(ptr noundef nonnull %4, i32 noundef %1, i32 noundef %2) #8
  %.not = icmp eq i32 %5, 0
  br i1 %.not, label %8, label %6

6:                                                ; preds = %3
  %7 = tail call ptr @PMIx_Error_string(i32 noundef -1) #8
  tail call void (i32, ptr, ...) @pmix_output(i32 noundef 0, ptr noundef nonnull @.str, ptr noundef %7, ptr noundef nonnull @.str.1, i32 noundef 203) #8
  br label %8

8:                                                ; preds = %6, %3
  %.0 = phi i32 [ -1, %6 ], [ 0, %3 ]
  ret i32 %.0
}